; Function Attrs: nounwind uwtable
define void @DTLS_RECORD_LAYER_clear(ptr noundef readonly captures(none) %0) local_unnamed_addr #0 {
  %2 = getelementptr inbounds nuw i8, ptr %0, i64 136
  %3 = load ptr, ptr %2, align 8, !tbaa !3
  %4 = getelementptr inbounds nuw i8, ptr %3, i64 8
  %5 = load ptr, ptr %4, align 8, !tbaa !16
  %6 = tail call ptr @pqueue_pop(ptr noundef %5) #7
  %.not14 = icmp eq ptr %6, null
  br i1 %.not14, label %._crit_edge, label %.lr.ph

.lr.ph:                                           ; preds = %1, %19
  %7 = phi ptr [ %24, %19 ], [ %6, %1 ]
  %8 = getelementptr inbounds nuw i8, ptr %7, i64 8
  %9 = load ptr, ptr %8, align 8, !tbaa !20
  %10 = load ptr, ptr %0, align 8, !tbaa !23
  %11 = getelementptr inbounds nuw i8, ptr %10, i64 2480
  %12 = load i64, ptr %11, align 8, !tbaa !24
  %13 = and i64 %12, 2
  %.not13 = icmp eq i64 %13, 0
  br i1 %.not13, label %19, label %14

14:                                               ; preds = %.lr.ph
  %15 = getelementptr inbounds nuw i8, ptr %9, i64 24
  %16 = load ptr, ptr %15, align 8, !tbaa !77
  %17 = getelementptr inbounds nuw i8, ptr %9, i64 32
  %18 = load i64, ptr %17, align 8, !tbaa !79
  tail call void @OPENSSL_cleanse(ptr noundef %16, i64 noundef %18) #7
  br label %19

19:                                               ; preds = %14, %.lr.ph
  %20 = getelementptr inbounds nuw i8, ptr %9, i64 24
  %21 = load ptr, ptr %20, align 8, !tbaa !77
  tail call void @CRYPTO_free(ptr noundef %21, ptr noundef nonnull @.str, i32 noundef 65) #7
  %22 = load ptr, ptr %8, align 8, !tbaa !20
  tail call void @CRYPTO_free(ptr noundef %22, ptr noundef nonnull @.str, i32 noundef 66) #7
  tail call void @pitem_free(ptr noundef nonnull %7) #7
  %23 = load ptr, ptr %4, align 8, !tbaa !16
  %24 = tail call ptr @pqueue_pop(ptr noundef %23) #7
  %.not = icmp eq ptr %24, null
  br i1 %.not, label %._crit_edge, label %.lr.ph, !llvm.loop !80

._crit_edge:                                      ; preds = %19, %1
  %25 = load ptr, ptr %4, align 8, !tbaa !16
  store i64 0, ptr %3, align 8
  store ptr %25, ptr %4, align 8, !tbaa !16
  ret void
}